target datalayout = "e-m:e-p270:32:32-p271:32:32-p272:64:64-i64:64-i128:128-f80:128-n8:16:32:64-S128"
target triple = "x86_64-pc-linux-gnu"

%struct.DCAExssParser = type { ptr, %struct.GetBitContext, i32, i32, i32, i32, i32, i32, i32, i32, [4 x i32], [1 x %struct.DCAExssAsset] }
%struct.GetBitContext = type { ptr, ptr, i32, i32, i32 }
%struct.DCAExssAsset = type { i32, i32, i32, i32, i32, i32, i32, i32, i32, i32, i32, i32, i32, i32, i32, i32, i32, i32, i32, i32, i32, i32, i32, i32, i32, i32, i32, i32, i32, i32 }

; Function Attrs: alwaysinline nounwind willreturn memory(none) uwtable
define internal i32 @av_bswap32(i32 noundef %0) #4 {
  %2 = alloca i32, align 4
  store i32 %0, ptr %2, align 4, !tbaa !11
  %3 = load i32, ptr %2, align 4, !tbaa !11
  %4 = shl i32 %3, 8
  %5 = and i32 %4, 65280
  %6 = load i32, ptr %2, align 4, !tbaa !11
  %7 = lshr i32 %6, 8
  %8 = and i32 %7, 255
  %9 = or i32 %5, %8
  %10 = shl i32 %9, 16
  %11 = load i32, ptr %2, align 4, !tbaa !11
  %12 = lshr i32 %11, 16
  %13 = shl i32 %12, 8
  %14 = and i32 %13, 65280
  %15 = load i32, ptr %2, align 4, !tbaa !11
  %16 = lshr i32 %15, 16
  %17 = lshr i32 %16, 8
  %18 = and i32 %17, 255
  %19 = or i32 %14, %18
  %20 = or i32 %10, %19
  ret i32 %20
}

; Function Attrs: inlinehint nounwind uwtable
define internal i32 @get_bits_long(ptr noundef %0, i32 noundef %1) #2 {
  %3 = alloca i32, align 4
  %4 = alloca ptr, align 8
  %5 = alloca i32, align 4
  %6 = alloca i32, align 4
  store ptr %0, ptr %4, align 8, !tbaa !34
  store i32 %1, ptr %5, align 4, !tbaa !11
  %7 = load i32, ptr %5, align 4, !tbaa !11
  %8 = icmp ne i32 %7, 0
  br i1 %8, label %10, label %9

9:                                                ; preds = %2
  store i32 0, ptr %3, align 4
  br label %29

10:                                               ; preds = %2
  %11 = load i32, ptr %5, align 4, !tbaa !11
  %12 = icmp sle i32 %11, 25
  br i1 %12, label %13, label %17

13:                                               ; preds = %10
  %14 = load ptr, ptr %4, align 8, !tbaa !34
  %15 = load i32, ptr %5, align 4, !tbaa !11
  %16 = call i32 @get_bits(ptr noundef %14, i32 noundef %15)
  store i32 %16, ptr %3, align 4
  br label %29

17:                                               ; preds = %10
  call void @llvm.lifetime.start.p0(i64 4, ptr %6) #6
  %18 = load ptr, ptr %4, align 8, !tbaa !34
  %19 = call i32 @get_bits(ptr noundef %18, i32 noundef 16)
  %20 = load i32, ptr %5, align 4, !tbaa !11
  %21 = sub nsw i32 %20, 16
  %22 = shl i32 %19, %21
  store i32 %22, ptr %6, align 4, !tbaa !11
  %23 = load i32, ptr %6, align 4, !tbaa !11
  %24 = load ptr, ptr %4, align 8, !tbaa !34
  %25 = load i32, ptr %5, align 4, !tbaa !11
  %26 = sub nsw i32 %25, 16
  %27 = call i32 @get_bits(ptr noundef %24, i32 noundef %26)
  %28 = or i32 %23, %27
  store i32 %28, ptr %3, align 4
  call void @llvm.lifetime.end.p0(i64 4, ptr %6) #6
  br label %29

29:                                               ; preds = %17, %13, %9
  %30 = load i32, ptr %3, align 4
  ret i32 %30
}

; Function Attrs: inlinehint nounwind uwtable
define internal void @skip_bits(ptr noundef %0, i32 noundef %1) #2 {
  %3 = alloca ptr, align 8
  %4 = alloca i32, align 4
  %5 = alloca i32, align 4
  %6 = alloca i32, align 4
  store ptr %0, ptr %3, align 8, !tbaa !34
  store i32 %1, ptr %4, align 4, !tbaa !11
  call void @llvm.lifetime.start.p0(i64 4, ptr %5) #6
  %7 = load ptr, ptr %3, align 8, !tbaa !34
  %8 = getelementptr inbounds nuw %struct.GetBitContext, ptr %7, i32 0, i32 2
  %9 = load i32, ptr %8, align 8, !tbaa !36
  store i32 %9, ptr %5, align 4, !tbaa !11
  call void @llvm.lifetime.start.p0(i64 4, ptr %6) #6
  %10 = load ptr, ptr %3, align 8, !tbaa !34
  %11 = getelementptr inbounds nuw %struct.GetBitContext, ptr %10, i32 0, i32 4
  %12 = load i32, ptr %11, align 8, !tbaa !37
  store i32 %12, ptr %6, align 4, !tbaa !11
  %13 = load i32, ptr %6, align 4, !tbaa !11
  %14 = load i32, ptr %5, align 4, !tbaa !11
  %15 = load i32, ptr %4, align 4, !tbaa !11
  %16 = add i32 %14, %15
  %17 = icmp ugt i32 %13, %16
  br i1 %17, label %18, label %22

18:                                               ; preds = %2
  %19 = load i32, ptr %5, align 4, !tbaa !11
  %20 = load i32, ptr %4, align 4, !tbaa !11
  %21 = add i32 %19, %20
  br label %24

22:                                               ; preds = %2
  %23 = load i32, ptr %6, align 4, !tbaa !11
  br label %24

24:                                               ; preds = %22, %18
  %25 = phi i32 [ %21, %18 ], [ %23, %22 ]
  store i32 %25, ptr %5, align 4, !tbaa !11
  %26 = load i32, ptr %5, align 4, !tbaa !11
  %27 = load ptr, ptr %3, align 8, !tbaa !34
  %28 = getelementptr inbounds nuw %struct.GetBitContext, ptr %27, i32 0, i32 2
  store i32 %26, ptr %28, align 8, !tbaa !36
  call void @llvm.lifetime.end.p0(i64 4, ptr %6) #6
  call void @llvm.lifetime.end.p0(i64 4, ptr %5) #6
  ret void
}

; Function Attrs: inlinehint nounwind uwtable
define internal i32 @get_bits1(ptr noundef %0) #2 {
  %2 = alloca ptr, align 8
  %3 = alloca i32, align 4
  %4 = alloca i8, align 1
  store ptr %0, ptr %2, align 8, !tbaa !34
  call void @llvm.lifetime.start.p0(i64 4, ptr %3) #6
  %5 = load ptr, ptr %2, align 8, !tbaa !34
  %6 = getelementptr inbounds nuw %struct.GetBitContext, ptr %5, i32 0, i32 2
  %7 = load i32, ptr %6, align 8, !tbaa !36
  store i32 %7, ptr %3, align 4, !tbaa !11
  call void @llvm.lifetime.start.p0(i64 1, ptr %4) #6
  %8 = load ptr, ptr %2, align 8, !tbaa !34
  %9 = getelementptr inbounds nuw %struct.GetBitContext, ptr %8, i32 0, i32 0
  %10 = load ptr, ptr %9, align 8, !tbaa !38
  %11 = load i32, ptr %3, align 4, !tbaa !11
  %12 = lshr i32 %11, 3
  %13 = zext i32 %12 to i64
  %14 = getelementptr inbounds nuw i8, ptr %10, i64 %13
  %15 = load i8, ptr %14, align 1, !tbaa !39
  store i8 %15, ptr %4, align 1, !tbaa !39
  %16 = load i32, ptr %3, align 4, !tbaa !11
  %17 = and i32 %16, 7
  %18 = load i8, ptr %4, align 1, !tbaa !39
  %19 = zext i8 %18 to i32
  %20 = shl i32 %19, %17
  %21 = trunc i32 %20 to i8
  store i8 %21, ptr %4, align 1, !tbaa !39
  %22 = load i8, ptr %4, align 1, !tbaa !39
  %23 = zext i8 %22 to i32
  %24 = ashr i32 %23, 7
  %25 = trunc i32 %24 to i8
  store i8 %25, ptr %4, align 1, !tbaa !39
  %26 = load ptr, ptr %2, align 8, !tbaa !34
  %27 = getelementptr inbounds nuw %struct.GetBitContext, ptr %26, i32 0, i32 2
  %28 = load i32, ptr %27, align 8, !tbaa !36
  %29 = load ptr, ptr %2, align 8, !tbaa !34
  %30 = getelementptr inbounds nuw %struct.GetBitContext, ptr %29, i32 0, i32 4
  %31 = load i32, ptr %30, align 8, !tbaa !37
  %32 = icmp slt i32 %28, %31
  br i1 %32, label %33, label %36

33:                                               ; preds = %1
  %34 = load i32, ptr %3, align 4, !tbaa !11
  %35 = add i32 %34, 1
  store i32 %35, ptr %3, align 4, !tbaa !11
  br label %36

36:                                               ; preds = %33, %1
  %37 = load i32, ptr %3, align 4, !tbaa !11
  %38 = load ptr, ptr %2, align 8, !tbaa !34
  %39 = getelementptr inbounds nuw %struct.GetBitContext, ptr %38, i32 0, i32 2
  store i32 %37, ptr %39, align 8, !tbaa !36
  %40 = load i8, ptr %4, align 1, !tbaa !39
  %41 = zext i8 %40 to i32
  call void @llvm.lifetime.end.p0(i64 1, ptr %4) #6
  call void @llvm.lifetime.end.p0(i64 4, ptr %3) #6
  ret i32 %41
}

; Function Attrs: inlinehint nounwind uwtable
define internal i32 @get_bits(ptr noundef %0, i32 noundef %1) #2 {
  %3 = alloca ptr, align 8
  %4 = alloca i32, align 4
  %5 = alloca i32, align 4
  %6 = alloca i32, align 4
  %7 = alloca i32, align 4
  %8 = alloca i32, align 4
  store ptr %0, ptr %3, align 8, !tbaa !34
  store i32 %1, ptr %4, align 4, !tbaa !11
  call void @llvm.lifetime.start.p0(i64 4, ptr %5) #6
  call void @llvm.lifetime.start.p0(i64 4, ptr %6) #6
  %9 = load ptr, ptr %3, align 8, !tbaa !34
  %10 = getelementptr inbounds nuw %struct.GetBitContext, ptr %9, i32 0, i32 2
  %11 = load i32, ptr %10, align 8, !tbaa !36
  store i32 %11, ptr %6, align 4, !tbaa !11
  call void @llvm.lifetime.start.p0(i64 4, ptr %7) #6
  call void @llvm.lifetime.start.p0(i64 4, ptr %8) #6
  %12 = load ptr, ptr %3, align 8, !tbaa !34
  %13 = getelementptr inbounds nuw %struct.GetBitContext, ptr %12, i32 0, i32 4
  %14 = load i32, ptr %13, align 8, !tbaa !37
  store i32 %14, ptr %8, align 4, !tbaa !11
  %15 = load ptr, ptr %3, align 8, !tbaa !34
  %16 = getelementptr inbounds nuw %struct.GetBitContext, ptr %15, i32 0, i32 0
  %17 = load ptr, ptr %16, align 8, !tbaa !38
  %18 = load i32, ptr %6, align 4, !tbaa !11
  %19 = lshr i32 %18, 3
  %20 = zext i32 %19 to i64
  %21 = getelementptr inbounds nuw i8, ptr %17, i64 %20
  %22 = load i32, ptr %21, align 1, !tbaa !39
  %23 = call i32 @av_bswap32(i32 noundef %22) #7
  %24 = load i32, ptr %6, align 4, !tbaa !11
  %25 = and i32 %24, 7
  %26 = shl i32 %23, %25
  %27 = lshr i32 %26, 0
  store i32 %27, ptr %7, align 4, !tbaa !11
  %28 = load i32, ptr %7, align 4, !tbaa !11
  %29 = load i32, ptr %4, align 4, !tbaa !11
  %30 = sub nsw i32 32, %29
  %31 = lshr i32 %28, %30
  store i32 %31, ptr %5, align 4, !tbaa !11
  %32 = load i32, ptr %8, align 4, !tbaa !11
  %33 = load i32, ptr %6, align 4, !tbaa !11
  %34 = load i32, ptr %4, align 4, !tbaa !11
  %35 = add i32 %33, %34
  %36 = icmp ugt i32 %32, %35
  br i1 %36, label %37, label %41

37:                                               ; preds = %2
  %38 = load i32, ptr %6, align 4, !tbaa !11
  %39 = load i32, ptr %4, align 4, !tbaa !11
  %40 = add i32 %38, %39
  br label %43

41:                                               ; preds = %2
  %42 = load i32, ptr %8, align 4, !tbaa !11
  br label %43

43:                                               ; preds = %41, %37
  %44 = phi i32 [ %40, %37 ], [ %42, %41 ]
  store i32 %44, ptr %6, align 4, !tbaa !11
  %45 = load i32, ptr %6, align 4, !tbaa !11
  %46 = load ptr, ptr %3, align 8, !tbaa !34
  %47 = getelementptr inbounds nuw %struct.GetBitContext, ptr %46, i32 0, i32 2
  store i32 %45, ptr %47, align 8, !tbaa !36
  %48 = load i32, ptr %5, align 4, !tbaa !11
  call void @llvm.lifetime.end.p0(i64 4, ptr %8) #6
  call void @llvm.lifetime.end.p0(i64 4, ptr %7) #6
  call void @llvm.lifetime.end.p0(i64 4, ptr %6) #6
  call void @llvm.lifetime.end.p0(i64 4, ptr %5) #6
  ret i32 %48
}

; Function Attrs: nounwind uwtable
define internal void @parse_xll_parameters(ptr noundef %0, ptr noundef %1) #0 {
  %3 = alloca ptr, align 8
  %4 = alloca ptr, align 8
  %5 = alloca i32, align 4
  store ptr %0, ptr %3, align 8, !tbaa !4
  store ptr %1, ptr %4, align 8, !tbaa !76
  %6 = load ptr, ptr %3, align 8, !tbaa !4
  %7 = getelementptr inbounds nuw %struct.DCAExssParser, ptr %6, i32 0, i32 1
  %8 = load ptr, ptr %3, align 8, !tbaa !4
  %9 = getelementptr inbounds nuw %struct.DCAExssParser, ptr %8, i32 0, i32 3
  %10 = load i32, ptr %9, align 4, !tbaa !18
  %11 = call i32 @get_bits(ptr noundef %7, i32 noundef %10)
  %12 = add i32 %11, 1
  %13 = load ptr, ptr %4, align 8, !tbaa !76
  %14 = getelementptr inbounds nuw %struct.DCAExssAsset, ptr %13, i32 0, i32 25
  store i32 %12, ptr %14, align 4, !tbaa !108
  %15 = load ptr, ptr %3, align 8, !tbaa !4
  %16 = getelementptr inbounds nuw %struct.DCAExssParser, ptr %15, i32 0, i32 1
  %17 = call i32 @get_bits1(ptr noundef %16)
  %18 = load ptr, ptr %4, align 8, !tbaa !76
  %19 = getelementptr inbounds nuw %struct.DCAExssAsset, ptr %18, i32 0, i32 26
  store i32 %17, ptr %19, align 4, !tbaa !110
  %20 = icmp ne i32 %17, 0
  br i1 %20, label %21, label %42

21:                                               ; preds = %2
  call void @llvm.lifetime.start.p0(i64 4, ptr %5) #6
  %22 = load ptr, ptr %3, align 8, !tbaa !4
  %23 = getelementptr inbounds nuw %struct.DCAExssParser, ptr %22, i32 0, i32 1
  call void @skip_bits(ptr noundef %23, i32 noundef 4)
  %24 = load ptr, ptr %3, align 8, !tbaa !4
  %25 = getelementptr inbounds nuw %struct.DCAExssParser, ptr %24, i32 0, i32 1
  %26 = call i32 @get_bits(ptr noundef %25, i32 noundef 5)
  %27 = add i32 %26, 1
  store i32 %27, ptr %5, align 4, !tbaa !11
  %28 = load ptr, ptr %3, align 8, !tbaa !4
  %29 = getelementptr inbounds nuw %struct.DCAExssParser, ptr %28, i32 0, i32 1
  %30 = load i32, ptr %5, align 4, !tbaa !11
  %31 = call i32 @get_bits_long(ptr noundef %29, i32 noundef %30)
  %32 = load ptr, ptr %4, align 8, !tbaa !76
  %33 = getelementptr inbounds nuw %struct.DCAExssAsset, ptr %32, i32 0, i32 27
  store i32 %31, ptr %33, align 4, !tbaa !111
  %34 = load ptr, ptr %3, align 8, !tbaa !4
  %35 = getelementptr inbounds nuw %struct.DCAExssParser, ptr %34, i32 0, i32 1
  %36 = load ptr, ptr %3, align 8, !tbaa !4
  %37 = getelementptr inbounds nuw %struct.DCAExssParser, ptr %36, i32 0, i32 3
  %38 = load i32, ptr %37, align 4, !tbaa !18
  %39 = call i32 @get_bits(ptr noundef %35, i32 noundef %38)
  %40 = load ptr, ptr %4, align 8, !tbaa !76
  %41 = getelementptr inbounds nuw %struct.DCAExssAsset, ptr %40, i32 0, i32 28
  store i32 %39, ptr %41, align 4, !tbaa !112
  call void @llvm.lifetime.end.p0(i64 4, ptr %5) #6
  br label %47

42:                                               ; preds = %2
  %43 = load ptr, ptr %4, align 8, !tbaa !76
  %44 = getelementptr inbounds nuw %struct.DCAExssAsset, ptr %43, i32 0, i32 27
  store i32 0, ptr %44, align 4, !tbaa !111
  %45 = load ptr, ptr %4, align 8, !tbaa !76
  %46 = getelementptr inbounds nuw %struct.DCAExssAsset, ptr %45, i32 0, i32 28
  store i32 0, ptr %46, align 4, !tbaa !112
  br label %47

47:                                               ; preds = %42, %21
  ret void
}