; Function Attrs: mustprogress nofree norecurse nosync nounwind willreturn memory(read, argmem: readwrite, inaccessiblemem: none) uwtable
define internal fastcc void @parse_xll_parameters(ptr noundef captures(none) %0, ptr noundef writeonly captures(none) initializes((100, 116)) %1) unnamed_addr #4 {
  %3 = getelementptr inbounds nuw i8, ptr %0, i64 8
  %4 = getelementptr inbounds nuw i8, ptr %0, i64 44
  %5 = load i32, ptr %4, align 4, !tbaa !52
  %6 = getelementptr inbounds nuw i8, ptr %0, i64 24
  %7 = load i32, ptr %6, align 8, !tbaa !14
  %8 = getelementptr inbounds nuw i8, ptr %0, i64 32
  %9 = load i32, ptr %8, align 8, !tbaa !12
  %10 = load ptr, ptr %3, align 8, !tbaa !4
  %11 = lshr i32 %7, 3
  %12 = zext nneg i32 %11 to i64
  %13 = getelementptr inbounds nuw i8, ptr %10, i64 %12
  %14 = load i32, ptr %13, align 1, !tbaa !15
  %15 = tail call i32 @llvm.bswap.i32(i32 %14)
  %16 = and i32 %7, 7
  %17 = shl i32 %15, %16
  %18 = sub nsw i32 32, %5
  %19 = lshr i32 %17, %18
  %20 = add i32 %7, %5
  %21 = tail call i32 @llvm.umin.i32(i32 %9, i32 %20)
  store i32 %21, ptr %6, align 8, !tbaa !14
  %22 = add i32 %19, 1
  %23 = getelementptr inbounds nuw i8, ptr %1, i64 100
  store i32 %22, ptr %23, align 4, !tbaa !96
  %24 = lshr i32 %21, 3
  %25 = zext nneg i32 %24 to i64
  %26 = getelementptr inbounds nuw i8, ptr %10, i64 %25
  %27 = load i8, ptr %26, align 1, !tbaa !15
  %28 = icmp slt i32 %21, %9
  %29 = zext i1 %28 to i32
  %spec.select.i = add i32 %21, %29
  %30 = zext i8 %27 to i32
  %31 = and i32 %21, 7
  %32 = shl nuw nsw i32 %30, %31
  %33 = lshr i32 %32, 7
  store i32 %spec.select.i, ptr %6, align 8, !tbaa !14
  %34 = and i32 %33, 1
  %35 = getelementptr inbounds nuw i8, ptr %1, i64 104
  store i32 %34, ptr %35, align 4, !tbaa !98
  %.not = icmp eq i32 %34, 0
  br i1 %.not, label %92, label %36

36:                                               ; preds = %2
  %37 = add i32 %spec.select.i, 4
  %38 = tail call i32 @llvm.umin.i32(i32 %9, i32 %37)
  store i32 %38, ptr %6, align 8, !tbaa !14
  %39 = lshr i32 %38, 3
  %40 = zext nneg i32 %39 to i64
  %41 = getelementptr inbounds nuw i8, ptr %10, i64 %40
  %42 = load i32, ptr %41, align 1, !tbaa !15
  %43 = tail call i32 @llvm.bswap.i32(i32 %42)
  %44 = and i32 %38, 7
  %45 = shl i32 %43, %44
  %46 = lshr i32 %45, 27
  %47 = add i32 %38, 5
  %48 = tail call i32 @llvm.umin.i32(i32 %9, i32 %47)
  store i32 %48, ptr %6, align 8, !tbaa !14
  %49 = icmp ult i32 %45, -939524096
  %50 = lshr i32 %48, 3
  %51 = zext nneg i32 %50 to i64
  %52 = getelementptr inbounds nuw i8, ptr %10, i64 %51
  %53 = load i32, ptr %52, align 1, !tbaa !15
  %54 = tail call i32 @llvm.bswap.i32(i32 %53)
  %55 = and i32 %48, 7
  %56 = shl i32 %54, %55
  br i1 %49, label %57, label %63

57:                                               ; preds = %36
  %58 = xor i32 %46, 31
  %59 = lshr i32 %56, %58
  %60 = add i32 %48, 1
  %61 = add i32 %60, %46
  %62 = tail call i32 @llvm.umin.i32(i32 %9, i32 %61)
  br label %get_bits_long.exit

63:                                               ; preds = %36
  %64 = lshr i32 %56, 16
  %65 = add i32 %48, 16
  %66 = tail call i32 @llvm.umin.i32(i32 %9, i32 %65)
  store i32 %66, ptr %6, align 8, !tbaa !14
  %67 = add nsw i32 %46, -15
  %68 = shl nuw i32 %64, %67
  %69 = lshr i32 %66, 3
  %70 = zext nneg i32 %69 to i64
  %71 = getelementptr inbounds nuw i8, ptr %10, i64 %70
  %72 = load i32, ptr %71, align 1, !tbaa !15
  %73 = tail call i32 @llvm.bswap.i32(i32 %72)
  %74 = and i32 %66, 7
  %75 = shl i32 %73, %74
  %76 = sub nuw nsw i32 47, %46
  %77 = lshr i32 %75, %76
  %78 = add i32 %67, %66
  %79 = tail call i32 @llvm.umin.i32(i32 %9, i32 %78)
  %80 = or i32 %77, %68
  br label %get_bits_long.exit

get_bits_long.exit:                               ; preds = %57, %63
  %.sink = phi i32 [ %62, %57 ], [ %79, %63 ]
  %.0.i = phi i32 [ %59, %57 ], [ %80, %63 ]
  store i32 %.sink, ptr %6, align 8, !tbaa !14
  %81 = getelementptr inbounds nuw i8, ptr %1, i64 108
  store i32 %.0.i, ptr %81, align 4, !tbaa !99
  %82 = lshr i32 %.sink, 3
  %83 = zext nneg i32 %82 to i64
  %84 = getelementptr inbounds nuw i8, ptr %10, i64 %83
  %85 = load i32, ptr %84, align 1, !tbaa !15
  %86 = tail call i32 @llvm.bswap.i32(i32 %85)
  %87 = and i32 %.sink, 7
  %88 = shl i32 %86, %87
  %89 = lshr i32 %88, %18
  %90 = add i32 %.sink, %5
  %91 = tail call i32 @llvm.umin.i32(i32 %9, i32 %90)
  store i32 %91, ptr %6, align 8, !tbaa !14
  br label %94

92:                                               ; preds = %2
  %93 = getelementptr inbounds nuw i8, ptr %1, i64 108
  store i32 0, ptr %93, align 4, !tbaa !99
  br label %94

94:                                               ; preds = %92, %get_bits_long.exit
  %.sink14 = phi i32 [ 0, %92 ], [ %89, %get_bits_long.exit ]
  %95 = getelementptr inbounds nuw i8, ptr %1, i64 112
  store i32 %.sink14, ptr %95, align 4, !tbaa !100
  ret void
}